target datalayout = "e-m:e-p270:32:32-p271:32:32-p272:64:64-i64:64-i128:128-f80:128-n8:16:32:64-S128"
target triple = "x86_64-pc-linux-gnu"

%class.RegMask = type { %union.anon, i32, i32 }
%union.anon = type { [11 x i64] }
%class.Matcher = type { %class.PhaseTransform, %class.ResourceArea, %class.Node_List, %class.VectorSet, %class.VectorSet, %class.VectorSet, ptr, ptr, ptr, ptr, i32, i32, ptr, ptr, %class.Node_List, %class.Node_Array, ptr, i32, [16 x ptr], [16 x ptr], [16 x ptr], i8, ptr, ptr, ptr, ptr, %class.Node_List, i32, i32, i32, i32, ptr, ptr, %class.RegMask, %class.RegMask }
%class.PhaseTransform = type { ptr, %class.Phase }
%class.Phase = type { i32, ptr }
%class.ResourceArea = type { %class.Arena }
%class.Arena = type { i8, i8, i64, ptr, ptr, ptr, ptr }
%class.VectorSet = type { i32, ptr, i32, ptr }
%class.Node_Array = type { ptr, i32, ptr }
%class.Node_List = type <{ %class.Node_Array, i32, [4 x i8] }>
%class.Compile = type <{ %class.Phase, i32, %class.Options, [4 x i8], ptr, i32, [4 x i8], ptr, ptr, ptr, ptr, ptr, i32, i32, i32, [4 x i8], i64, i8, i8, [2 x i8], i32, i8, i8, i8, i8, i8, i8, i8, i8, i8, [3 x i8], i32, i8, [3 x i8], [30 x i32], i8, [3 x i8], i32, i8, i8, i8, i8, i8, i8, i8, i8, i8, i8, i8, i8, i8, [3 x i8], i32, i32, [4 x i8], %class.Arena, ptr, ptr, ptr, ptr, %class.CHeapStringHolder, ptr, %class.GrowableArray, %class.GrowableArray.0, %class.GrowableArray.3, %class.GrowableArray.0, %class.GrowableArray.0, %class.GrowableArray.0, %class.GrowableArray.6, %class.GrowableArray.9, ptr, i32, i32, %class.VectorSet, %class.Arena, %class.Arena, ptr, ptr, ptr, ptr, ptr, ptr, ptr, ptr, ptr, %class.Arena, ptr, ptr, %class.CloneMap, i64, ptr, ptr, ptr, i32, i32, [64 x %"struct.Compile::AliasCacheEntry"], ptr, ptr, ptr, ptr, %class.GrowableArray, %class.GrowableArray, %class.GrowableArray, %class.GrowableArray, i32, i32, i8, [7 x i8], ptr, ptr, i32, [4 x i8], ptr, ptr, ptr, i32, i32, ptr, ptr, %class.RegMask, ptr, ptr, i32, [4 x i8], ptr, %class.TimeInstant, i32, [4 x i8] }>
%class.Options = type { i8, i8, i8, i8, i8, i8, i8, i8 }
%class.CHeapStringHolder = type { ptr }
%class.GrowableArray.3 = type { %class.GrowableArrayWithAllocator.4, %class.GrowableArrayMetadata }
%class.GrowableArrayWithAllocator.4 = type { %class.GrowableArrayView.5 }
%class.GrowableArrayView.5 = type { %class.GrowableArrayBase, ptr }
%class.GrowableArrayBase = type { i32, i32 }
%class.GrowableArrayMetadata = type { i64 }
%class.GrowableArray.0 = type { %class.GrowableArrayWithAllocator.1, %class.GrowableArrayMetadata }
%class.GrowableArrayWithAllocator.1 = type { %class.GrowableArrayView.2 }
%class.GrowableArrayView.2 = type { %class.GrowableArrayBase, ptr }
%class.GrowableArray.6 = type { %class.GrowableArrayWithAllocator.7, %class.GrowableArrayMetadata }
%class.GrowableArrayWithAllocator.7 = type { %class.GrowableArrayView.8 }
%class.GrowableArrayView.8 = type { %class.GrowableArrayBase, ptr }
%class.GrowableArray.9 = type { %class.GrowableArrayWithAllocator.10, %class.GrowableArrayMetadata }
%class.GrowableArrayWithAllocator.10 = type { %class.GrowableArrayView.11 }
%class.GrowableArrayView.11 = type { %class.GrowableArrayBase, ptr }
%class.CloneMap = type <{ i8, [7 x i8], ptr, i32, [4 x i8] }>
%"struct.Compile::AliasCacheEntry" = type { ptr, i32 }
%class.GrowableArray = type { %class.GrowableArrayWithAllocator, %class.GrowableArrayMetadata }
%class.GrowableArrayWithAllocator = type { %class.GrowableArrayView }
%class.GrowableArrayView = type { %class.GrowableArrayBase, ptr }
%class.TimeInstant = type { %class.CompositeCounterRepresentation }
%class.CompositeCounterRepresentation = type { %class.Representation }
%class.Representation = type { %class.PairRep }
%class.PairRep = type { i64, i64 }
%class.Node = type <{ ptr, ptr, ptr, i32, i32, i32, i32, i32, i32, i32, [4 x i8] }>

; Function Attrs: mustprogress nounwind uwtable
define linkonce_odr hidden noundef ptr @_ZNK4Node2inEj(ptr noundef nonnull align 8 dereferenceable(52) %0, i32 noundef %1) #1 comdat align 2 {
  %3 = alloca ptr, align 8
  %4 = alloca i32, align 4
  store ptr %0, ptr %3, align 8
  store i32 %1, ptr %4, align 4
  %5 = load ptr, ptr %3, align 8
  %6 = getelementptr inbounds %class.Node, ptr %5, i32 0, i32 1
  %7 = load ptr, ptr %6, align 8
  %8 = load i32, ptr %4, align 4
  %9 = zext i32 %8 to i64
  %10 = getelementptr inbounds ptr, ptr %7, i64 %9
  %11 = load ptr, ptr %10, align 8
  ret ptr %11
}

; Function Attrs: mustprogress nounwind uwtable
define linkonce_odr hidden noundef ptr @_ZNK7Matcher8new_nodeEPK4Node(ptr noundef nonnull align 8 dereferenceable(1008) %0, ptr noundef %1) #1 comdat align 2 {
  %3 = alloca ptr, align 8
  %4 = alloca ptr, align 8
  store ptr %0, ptr %3, align 8
  store ptr %1, ptr %4, align 8
  %5 = load ptr, ptr %3, align 8
  %6 = getelementptr inbounds %class.Matcher, ptr %5, i32 0, i32 2
  %7 = load ptr, ptr %4, align 8
  %8 = getelementptr inbounds %class.Node, ptr %7, i32 0, i32 7
  %9 = load i32, ptr %8, align 8
  %10 = call noundef ptr @_ZNK10Node_Array2atEj(ptr noundef nonnull align 8 dereferenceable(24) %6, i32 noundef %9)
  ret ptr %10
}

; Function Attrs: mustprogress nounwind uwtable
define linkonce_odr hidden noundef ptr @_ZNK7Compile4rootEv(ptr noundef nonnull align 8 dereferenceable(2316) %0) #1 comdat align 2 {
  %2 = alloca ptr, align 8
  store ptr %0, ptr %2, align 8
  %3 = load ptr, ptr %2, align 8
  %4 = getelementptr inbounds %class.Compile, ptr %3, i32 0, i32 77
  %5 = load ptr, ptr %4, align 8
  ret ptr %5
}

; Function Attrs: mustprogress nounwind uwtable
define linkonce_odr hidden noundef ptr @_ZNK10Node_Array2atEj(ptr noundef nonnull align 8 dereferenceable(24) %0, i32 noundef %1) #1 comdat align 2 {
  %3 = alloca ptr, align 8
  %4 = alloca i32, align 4
  store ptr %0, ptr %3, align 8
  store i32 %1, ptr %4, align 4
  %5 = load ptr, ptr %3, align 8
  %6 = getelementptr inbounds %class.Node_Array, ptr %5, i32 0, i32 2
  %7 = load ptr, ptr %6, align 8
  %8 = load i32, ptr %4, align 4
  %9 = zext i32 %8 to i64
  %10 = getelementptr inbounds ptr, ptr %7, i64 %9
  %11 = load ptr, ptr %10, align 8
  ret ptr %11
}

; Function Attrs: mustprogress nounwind uwtable
define linkonce_odr hidden noundef i32 @_ZNK10Node_Array3maxEv(ptr noundef nonnull align 8 dereferenceable(24) %0) #1 comdat align 2 {
  %2 = alloca ptr, align 8
  store ptr %0, ptr %2, align 8
  %3 = load ptr, ptr %2, align 8
  %4 = getelementptr inbounds %class.Node_Array, ptr %3, i32 0, i32 1
  %5 = load i32, ptr %4, align 8
  ret i32 %5
}

; Function Attrs: mustprogress nounwind uwtable
define linkonce_odr hidden noundef zeroext i1 @_ZNK4Node18is_DecodeNarrowPtrEv(ptr noundef nonnull align 8 dereferenceable(52) %0) #1 comdat align 2 {
  %2 = alloca ptr, align 8
  store ptr %0, ptr %2, align 8
  %3 = load ptr, ptr %2, align 8
  %4 = getelementptr inbounds %class.Node, ptr %3, i32 0, i32 8
  %5 = load i32, ptr %4, align 4
  %6 = and i32 %5, 511
  %7 = icmp eq i32 %6, 260
  ret i1 %7
}

; Function Attrs: mustprogress nounwind uwtable
define linkonce_odr hidden noundef zeroext i1 @_ZNK4Node6is_ConEv(ptr noundef nonnull align 8 dereferenceable(52) %0) #1 comdat align 2 {
  %2 = alloca ptr, align 8
  store ptr %0, ptr %2, align 8
  %3 = load ptr, ptr %2, align 8
  %4 = getelementptr inbounds %class.Node, ptr %3, i32 0, i32 9
  %5 = load i32, ptr %4, align 8
  %6 = and i32 %5, 16
  %7 = icmp ne i32 %6, 0
  ret i1 %7
}

; Function Attrs: mustprogress nounwind uwtable
define hidden noundef ptr @_ZN7Matcher16find_shared_nodeEP4Nodej(ptr noundef nonnull align 8 dereferenceable(1008) %0, ptr noundef %1, i32 noundef %2) #1 align 2 {
  %4 = alloca ptr, align 8
  %5 = alloca ptr, align 8
  %6 = alloca ptr, align 8
  %7 = alloca i32, align 4
  %8 = alloca ptr, align 8
  %9 = alloca ptr, align 8
  %10 = alloca ptr, align 8
  store ptr %0, ptr %5, align 8
  store ptr %1, ptr %6, align 8
  store i32 %2, ptr %7, align 4
  %11 = load ptr, ptr %5, align 8
  %12 = load ptr, ptr %6, align 8
  %13 = call noundef zeroext i1 @_ZNK4Node6is_ConEv(ptr noundef nonnull align 8 dereferenceable(52) %12)
  br i1 %13, label %18, label %14

14:                                               ; preds = %3
  %15 = load ptr, ptr %6, align 8
  %16 = call noundef zeroext i1 @_ZNK4Node18is_DecodeNarrowPtrEv(ptr noundef nonnull align 8 dereferenceable(52) %15)
  br i1 %16, label %18, label %17

17:                                               ; preds = %14
  store ptr null, ptr %4, align 8
  br label %80

18:                                               ; preds = %14, %3
  %19 = getelementptr inbounds %class.Matcher, ptr %11, i32 0, i32 15
  %20 = call noundef i32 @_ZNK10Node_Array3maxEv(ptr noundef nonnull align 8 dereferenceable(24) %19)
  %21 = load ptr, ptr %6, align 8
  %22 = getelementptr inbounds %class.Node, ptr %21, i32 0, i32 7
  %23 = load i32, ptr %22, align 8
  %24 = icmp ule i32 %20, %23
  br i1 %24, label %25, label %26

25:                                               ; preds = %18
  store ptr null, ptr %4, align 8
  br label %80

26:                                               ; preds = %18
  %27 = getelementptr inbounds %class.Matcher, ptr %11, i32 0, i32 15
  %28 = load ptr, ptr %6, align 8
  %29 = getelementptr inbounds %class.Node, ptr %28, i32 0, i32 7
  %30 = load i32, ptr %29, align 8
  %31 = call noundef ptr @_ZNK10Node_Array2atEj(ptr noundef nonnull align 8 dereferenceable(24) %27, i32 noundef %30)
  store ptr %31, ptr %8, align 8
  %32 = load ptr, ptr %8, align 8
  %33 = icmp ne ptr %32, null
  br i1 %33, label %34, label %79

34:                                               ; preds = %26
  %35 = load i32, ptr %7, align 4
  %36 = load ptr, ptr %8, align 8
  %37 = load ptr, ptr %36, align 8
  %38 = getelementptr inbounds ptr, ptr %37, i64 24
  %39 = load ptr, ptr %38, align 8
  %40 = call noundef i32 %39(ptr noundef nonnull align 8 dereferenceable(64) %36)
  %41 = icmp eq i32 %35, %40
  br i1 %41, label %42, label %79

42:                                               ; preds = %34
  %43 = load ptr, ptr %6, align 8
  %44 = call noundef zeroext i1 @_ZNK4Node18is_DecodeNarrowPtrEv(ptr noundef nonnull align 8 dereferenceable(52) %43)
  br i1 %44, label %45, label %47

45:                                               ; preds = %42
  %46 = load ptr, ptr %8, align 8
  store ptr %46, ptr %4, align 8
  br label %80

47:                                               ; preds = %42
  %48 = getelementptr inbounds i8, ptr %11, i64 8
  %49 = getelementptr inbounds %class.Phase, ptr %48, i32 0, i32 1
  %50 = load ptr, ptr %49, align 8
  %51 = call noundef ptr @_ZNK7Compile4rootEv(ptr noundef nonnull align 8 dereferenceable(2316) %50)
  %52 = call noundef ptr @_ZNK7Matcher8new_nodeEPK4Node(ptr noundef nonnull align 8 dereferenceable(1008) %11, ptr noundef %51)
  store ptr %52, ptr %9, align 8
  %53 = load ptr, ptr %9, align 8
  %54 = icmp eq ptr %53, null
  br i1 %54, label %55, label %56

55:                                               ; preds = %47
  store ptr null, ptr %4, align 8
  br label %80

56:                                               ; preds = %47
  %57 = load ptr, ptr %8, align 8
  %58 = call noundef ptr @_ZNK4Node2inEj(ptr noundef nonnull align 8 dereferenceable(52) %57, i32 noundef 0)
  store ptr %58, ptr %10, align 8
  %59 = load ptr, ptr %10, align 8
  %60 = load ptr, ptr %9, align 8
  %61 = icmp ne ptr %59, %60
  br i1 %61, label %62, label %77

62:                                               ; preds = %56
  %63 = load ptr, ptr %10, align 8
  %64 = icmp eq ptr %63, null
  br i1 %64, label %72, label %65

65:                                               ; preds = %62
  %66 = load ptr, ptr %10, align 8
  %67 = getelementptr inbounds i8, ptr %11, i64 8
  %68 = getelementptr inbounds %class.Phase, ptr %67, i32 0, i32 1
  %69 = load ptr, ptr %68, align 8
  %70 = call noundef ptr @_ZNK7Compile4rootEv(ptr noundef nonnull align 8 dereferenceable(2316) %69)
  %71 = icmp eq ptr %66, %70
  br i1 %71, label %72, label %75

72:                                               ; preds = %65, %62
  %73 = load ptr, ptr %8, align 8
  %74 = load ptr, ptr %9, align 8
  call void @_ZN4Node7set_reqEjPS_(ptr noundef nonnull align 8 dereferenceable(52) %73, i32 noundef 0, ptr noundef %74)
  br label %76

75:                                               ; preds = %65
  store ptr null, ptr %4, align 8
  br label %80

76:                                               ; preds = %72
  br label %77

77:                                               ; preds = %76, %56
  %78 = load ptr, ptr %8, align 8
  store ptr %78, ptr %4, align 8
  br label %80

79:                                               ; preds = %34, %26
  store ptr null, ptr %4, align 8
  br label %80

80:                                               ; preds = %79, %77, %75, %55, %45, %25, %17
  %81 = load ptr, ptr %4, align 8
  ret ptr %81
}