; Function Attrs: mustprogress nounwind uwtable
define hidden noundef ptr @_ZN7Matcher16find_shared_nodeEP4Nodej(ptr nocapture noundef nonnull readonly align 8 dereferenceable(1008) %0, ptr nocapture noundef readonly %1, i32 noundef %2) local_unnamed_addr #0 align 2 {
  %4 = getelementptr inbounds i8, ptr %1, i64 48
  %5 = load i32, ptr %4, align 8
  %6 = and i32 %5, 16
  %.not25 = icmp eq i32 %6, 0
  br i1 %.not25, label %7, label %12

7:                                                ; preds = %3
  %8 = getelementptr inbounds i8, ptr %1, i64 44
  %9 = load i32, ptr %8, align 4
  %10 = and i32 %9, 511
  %11 = icmp eq i32 %10, 260
  br i1 %11, label %12, label %55

12:                                               ; preds = %7, %3
  %13 = getelementptr inbounds i8, ptr %0, i64 296
  %14 = load i32, ptr %13, align 8
  %15 = getelementptr inbounds i8, ptr %1, i64 40
  %16 = load i32, ptr %15, align 8
  %.not = icmp ugt i32 %14, %16
  br i1 %.not, label %17, label %55

17:                                               ; preds = %12
  %18 = getelementptr inbounds i8, ptr %0, i64 304
  %19 = load ptr, ptr %18, align 8
  %20 = zext i32 %16 to i64
  %21 = getelementptr inbounds ptr, ptr %19, i64 %20
  %22 = load ptr, ptr %21, align 8
  %.not23 = icmp eq ptr %22, null
  br i1 %.not23, label %55, label %23

23:                                               ; preds = %17
  %24 = load ptr, ptr %22, align 8
  %25 = getelementptr inbounds i8, ptr %24, i64 192
  %26 = load ptr, ptr %25, align 8
  %27 = tail call noundef i32 %26(ptr noundef nonnull align 8 dereferenceable(64) %22) #15
  %28 = icmp eq i32 %27, %2
  br i1 %28, label %29, label %55

29:                                               ; preds = %23
  %30 = getelementptr inbounds i8, ptr %1, i64 44
  %31 = load i32, ptr %30, align 4
  %32 = and i32 %31, 511
  %33 = icmp eq i32 %32, 260
  br i1 %33, label %55, label %34

34:                                               ; preds = %29
  %35 = getelementptr inbounds i8, ptr %0, i64 16
  %36 = load ptr, ptr %35, align 8
  %37 = getelementptr inbounds i8, ptr %36, i64 736
  %38 = load ptr, ptr %37, align 8
  %39 = getelementptr inbounds i8, ptr %38, i64 40
  %40 = load i32, ptr %39, align 8
  %41 = getelementptr inbounds i8, ptr %0, i64 88
  %42 = load ptr, ptr %41, align 8
  %43 = zext i32 %40 to i64
  %44 = getelementptr inbounds ptr, ptr %42, i64 %43
  %45 = load ptr, ptr %44, align 8
  %46 = icmp eq ptr %45, null
  br i1 %46, label %55, label %47

47:                                               ; preds = %34
  %48 = getelementptr inbounds i8, ptr %22, i64 8
  %49 = load ptr, ptr %48, align 8
  %50 = load ptr, ptr %49, align 8
  %.not24 = icmp eq ptr %50, %45
  br i1 %.not24, label %55, label %51

51:                                               ; preds = %47
  %52 = icmp eq ptr %50, null
  %53 = icmp eq ptr %50, %38
  %or.cond = or i1 %52, %53
  br i1 %or.cond, label %54, label %55

54:                                               ; preds = %51
  tail call void @_ZN4Node7set_reqEjPS_(ptr noundef nonnull align 8 dereferenceable(52) %22, i32 noundef 0, ptr noundef nonnull %45)
  br label %55

55:                                               ; preds = %51, %17, %23, %47, %54, %34, %29, %12, %7
  %.0 = phi ptr [ null, %7 ], [ null, %12 ], [ %22, %29 ], [ null, %34 ], [ %22, %54 ], [ %22, %47 ], [ null, %23 ], [ null, %17 ], [ null, %51 ]
  ret ptr %.0
}